target datalayout = "e-m:e-p270:32:32-p271:32:32-p272:64:64-i64:64-i128:128-f80:128-n8:16:32:64-S128"
target triple = "x86_64-pc-linux-gnu"

%struct._XDeviceInfo = type { i64, i64, ptr, i32, i32, ptr }
%struct._XAnyClassinfo = type { i64, i32 }
%struct._XButtonInfo = type { i64, i32, i16 }

@awt_display = external global ptr, align 8
@.str.32 = private unnamed_addr constant [16 x i8] c"XInputExtension\00", align 1

; Function Attrs: nounwind uwtable
define hidden i32 @getNumButtons() #0 {
  %1 = alloca i32, align 4
  %2 = alloca i32, align 4
  %3 = alloca i32, align 4
  %4 = alloca i32, align 4
  %5 = alloca i32, align 4
  %6 = alloca i32, align 4
  %7 = alloca i32, align 4
  %8 = alloca ptr, align 8
  %9 = alloca ptr, align 8
  %10 = alloca ptr, align 8
  %11 = alloca i32, align 4
  store i32 0, ptr %11, align 4
  %12 = load ptr, ptr @awt_display, align 8
  %13 = call i32 @XQueryExtension(ptr noundef %12, ptr noundef @.str.32, ptr noundef %1, ptr noundef %2, ptr noundef %3)
  store i32 %13, ptr %4, align 4
  %14 = load i32, ptr %4, align 4
  %15 = icmp ne i32 %14, 0
  br i1 %15, label %16, label %113

16:                                               ; preds = %0
  %17 = load ptr, ptr @awt_display, align 8
  %18 = call ptr @XListInputDevices(ptr noundef %17, ptr noundef %5)
  store ptr %18, ptr %8, align 8
  store i32 0, ptr %6, align 4
  br label %19

19:                                               ; preds = %108, %16
  %20 = load i32, ptr %6, align 4
  %21 = load i32, ptr %5, align 4
  %22 = icmp slt i32 %20, %21
  br i1 %22, label %23, label %111

23:                                               ; preds = %19
  %24 = load ptr, ptr %8, align 8
  %25 = load i32, ptr %6, align 4
  %26 = sext i32 %25 to i64
  %27 = getelementptr inbounds %struct._XDeviceInfo, ptr %24, i64 %26
  store ptr %27, ptr %9, align 8
  %28 = load ptr, ptr %9, align 8
  %29 = getelementptr inbounds %struct._XDeviceInfo, ptr %28, i32 0, i32 4
  %30 = load i32, ptr %29, align 4
  %31 = icmp eq i32 %30, 4
  br i1 %31, label %32, label %65

32:                                               ; preds = %23
  store i32 0, ptr %7, align 4
  br label %33

33:                                               ; preds = %61, %32
  %34 = load i32, ptr %7, align 4
  %35 = load ptr, ptr %9, align 8
  %36 = getelementptr inbounds %struct._XDeviceInfo, ptr %35, i32 0, i32 3
  %37 = load i32, ptr %36, align 8
  %38 = icmp slt i32 %34, %37
  br i1 %38, label %39, label %64

39:                                               ; preds = %33
  %40 = load ptr, ptr %9, align 8
  %41 = getelementptr inbounds %struct._XDeviceInfo, ptr %40, i32 0, i32 5
  %42 = load ptr, ptr %41, align 8
  %43 = load i32, ptr %7, align 4
  %44 = sext i32 %43 to i64
  %45 = getelementptr inbounds %struct._XAnyClassinfo, ptr %42, i64 %44
  %46 = getelementptr inbounds %struct._XAnyClassinfo, ptr %45, i32 0, i32 0
  %47 = load i64, ptr %46, align 8
  %48 = icmp eq i64 %47, 1
  br i1 %48, label %49, label %60

49:                                               ; preds = %39
  %50 = load ptr, ptr %9, align 8
  %51 = getelementptr inbounds %struct._XDeviceInfo, ptr %50, i32 0, i32 5
  %52 = load ptr, ptr %51, align 8
  %53 = load i32, ptr %7, align 4
  %54 = sext i32 %53 to i64
  %55 = getelementptr inbounds %struct._XAnyClassinfo, ptr %52, i64 %54
  store ptr %55, ptr %10, align 8
  %56 = load ptr, ptr %10, align 8
  %57 = getelementptr inbounds %struct._XButtonInfo, ptr %56, i32 0, i32 2
  %58 = load i16, ptr %57, align 4
  %59 = sext i16 %58 to i32
  store i32 %59, ptr %11, align 4
  br label %64

60:                                               ; preds = %39
  br label %61

61:                                               ; preds = %60
  %62 = load i32, ptr %7, align 4
  %63 = add nsw i32 %62, 1
  store i32 %63, ptr %7, align 4
  br label %33, !llvm.loop !6

64:                                               ; preds = %49, %33
  br label %111

65:                                               ; preds = %23
  %66 = load i32, ptr %11, align 4
  %67 = icmp sle i32 %66, 0
  br i1 %67, label %68, label %107

68:                                               ; preds = %65
  %69 = load ptr, ptr %9, align 8
  %70 = getelementptr inbounds %struct._XDeviceInfo, ptr %69, i32 0, i32 4
  %71 = load i32, ptr %70, align 4
  %72 = icmp eq i32 %71, 0
  br i1 %72, label %73, label %106

73:                                               ; preds = %68
  store i32 0, ptr %7, align 4
  br label %74

74:                                               ; preds = %102, %73
  %75 = load i32, ptr %7, align 4
  %76 = load ptr, ptr %9, align 8
  %77 = getelementptr inbounds %struct._XDeviceInfo, ptr %76, i32 0, i32 3
  %78 = load i32, ptr %77, align 8
  %79 = icmp slt i32 %75, %78
  br i1 %79, label %80, label %105

80:                                               ; preds = %74
  %81 = load ptr, ptr %9, align 8
  %82 = getelementptr inbounds %struct._XDeviceInfo, ptr %81, i32 0, i32 5
  %83 = load ptr, ptr %82, align 8
  %84 = load i32, ptr %7, align 4
  %85 = sext i32 %84 to i64
  %86 = getelementptr inbounds %struct._XAnyClassinfo, ptr %83, i64 %85
  %87 = getelementptr inbounds %struct._XAnyClassinfo, ptr %86, i32 0, i32 0
  %88 = load i64, ptr %87, align 8
  %89 = icmp eq i64 %88, 1
  br i1 %89, label %90, label %101

90:                                               ; preds = %80
  %91 = load ptr, ptr %9, align 8
  %92 = getelementptr inbounds %struct._XDeviceInfo, ptr %91, i32 0, i32 5
  %93 = load ptr, ptr %92, align 8
  %94 = load i32, ptr %7, align 4
  %95 = sext i32 %94 to i64
  %96 = getelementptr inbounds %struct._XAnyClassinfo, ptr %93, i64 %95
  store ptr %96, ptr %10, align 8
  %97 = load ptr, ptr %10, align 8
  %98 = getelementptr inbounds %struct._XButtonInfo, ptr %97, i32 0, i32 2
  %99 = load i16, ptr %98, align 4
  %100 = sext i16 %99 to i32
  store i32 %100, ptr %11, align 4
  br label %105

101:                                              ; preds = %80
  br label %102

102:                                              ; preds = %101
  %103 = load i32, ptr %7, align 4
  %104 = add nsw i32 %103, 1
  store i32 %104, ptr %7, align 4
  br label %74, !llvm.loop !8

105:                                              ; preds = %90, %74
  br label %111

106:                                              ; preds = %68
  br label %107

107:                                              ; preds = %106, %65
  br label %108

108:                                              ; preds = %107
  %109 = load i32, ptr %6, align 4
  %110 = add nsw i32 %109, 1
  store i32 %110, ptr %6, align 4
  br label %19, !llvm.loop !9

111:                                              ; preds = %105, %64, %19
  %112 = load ptr, ptr %8, align 8
  call void @XFreeDeviceList(ptr noundef %112)
  br label %114

113:                                              ; preds = %0
  br label %114

114:                                              ; preds = %113, %111
  %115 = load i32, ptr %11, align 4
  %116 = icmp eq i32 %115, 0
  br i1 %116, label %117, label %118

117:                                              ; preds = %114
  store i32 3, ptr %11, align 4
  br label %118

118:                                              ; preds = %117, %114
  %119 = load i32, ptr %11, align 4
  ret i32 %119
}