; Function Attrs: nounwind uwtable
define hidden range(i32 -32768, 32768) i32 @getNumButtons() local_unnamed_addr #0 {
  %1 = alloca i32, align 4
  %2 = alloca i32, align 4
  %3 = alloca i32, align 4
  %4 = alloca i32, align 4
  %5 = load ptr, ptr @awt_display, align 8
  %6 = call i32 @XQueryExtension(ptr noundef %5, ptr noundef nonnull @.str.32, ptr noundef nonnull %1, ptr noundef nonnull %2, ptr noundef nonnull %3) #13
  %.not = icmp eq i32 %6, 0
  br i1 %.not, label %.thread, label %7

7:                                                ; preds = %0
  %8 = load ptr, ptr @awt_display, align 8
  %9 = call ptr @XListInputDevices(ptr noundef %8, ptr noundef nonnull %4) #13
  %10 = load i32, ptr %4, align 4
  %11 = icmp sgt i32 %10, 0
  br i1 %11, label %.lr.ph.preheader, label %.thread32

.lr.ph.preheader:                                 ; preds = %7
  %wide.trip.count = zext nneg i32 %10 to i64
  br label %.lr.ph

.lr.ph:                                           ; preds = %.lr.ph.preheader, %35
  %indvars.iv = phi i64 [ 0, %.lr.ph.preheader ], [ %indvars.iv.next, %35 ]
  %12 = getelementptr inbounds %struct._XDeviceInfo, ptr %9, i64 %indvars.iv
  %13 = getelementptr inbounds i8, ptr %12, i64 28
  %14 = load i32, ptr %13, align 4
  switch i32 %14, label %35 [
    i32 4, label %.preheader
    i32 0, label %.preheader35
  ]

.preheader35:                                     ; preds = %.lr.ph
  %15 = getelementptr inbounds i8, ptr %12, i64 24
  %16 = load i32, ptr %15, align 8
  %17 = icmp sgt i32 %16, 0
  br i1 %17, label %.lr.ph44, label %.thread32

.lr.ph44:                                         ; preds = %.preheader35
  %18 = getelementptr inbounds i8, ptr %12, i64 32
  %19 = load ptr, ptr %18, align 8
  %wide.trip.count60 = zext nneg i32 %16 to i64
  br label %31

.preheader:                                       ; preds = %.lr.ph
  %20 = getelementptr inbounds i8, ptr %12, i64 24
  %21 = load i32, ptr %20, align 8
  %22 = icmp sgt i32 %21, 0
  br i1 %22, label %.lr.ph46, label %.thread32

.lr.ph46:                                         ; preds = %.preheader
  %23 = getelementptr inbounds i8, ptr %12, i64 32
  %24 = load ptr, ptr %23, align 8
  %wide.trip.count65 = zext nneg i32 %21 to i64
  br label %26

25:                                               ; preds = %26
  %indvars.iv.next63 = add nuw nsw i64 %indvars.iv62, 1
  %exitcond66.not = icmp eq i64 %indvars.iv.next63, %wide.trip.count65
  br i1 %exitcond66.not, label %.thread32, label %26, !llvm.loop !8

26:                                               ; preds = %.lr.ph46, %25
  %indvars.iv62 = phi i64 [ 0, %.lr.ph46 ], [ %indvars.iv.next63, %25 ]
  %27 = getelementptr inbounds %struct._XAnyClassinfo, ptr %24, i64 %indvars.iv62
  %28 = load i64, ptr %27, align 8
  %29 = icmp eq i64 %28, 1
  br i1 %29, label %.loopexit, label %25

30:                                               ; preds = %31
  %indvars.iv.next58 = add nuw nsw i64 %indvars.iv57, 1
  %exitcond61.not = icmp eq i64 %indvars.iv.next58, %wide.trip.count60
  br i1 %exitcond61.not, label %.thread32, label %31, !llvm.loop !9

31:                                               ; preds = %.lr.ph44, %30
  %indvars.iv57 = phi i64 [ 0, %.lr.ph44 ], [ %indvars.iv.next58, %30 ]
  %32 = getelementptr inbounds %struct._XAnyClassinfo, ptr %19, i64 %indvars.iv57
  %33 = load i64, ptr %32, align 8
  %34 = icmp eq i64 %33, 1
  br i1 %34, label %.loopexit, label %30

35:                                               ; preds = %.lr.ph
  %indvars.iv.next = add nuw nsw i64 %indvars.iv, 1
  %exitcond.not = icmp eq i64 %indvars.iv.next, %wide.trip.count
  br i1 %exitcond.not, label %.thread32, label %.lr.ph, !llvm.loop !10

.thread32:                                        ; preds = %35, %30, %25, %7, %.preheader35, %.preheader
  call void @XFreeDeviceList(ptr noundef %9) #13
  br label %.thread

.loopexit:                                        ; preds = %31, %26
  %.pn = phi ptr [ %27, %26 ], [ %32, %31 ]
  %.0.in.in = getelementptr inbounds i8, ptr %.pn, i64 12
  %.0.in = load i16, ptr %.0.in.in, align 4
  %.0.in.fr = freeze i16 %.0.in
  %.0 = sext i16 %.0.in.fr to i32
  call void @XFreeDeviceList(ptr noundef nonnull %9) #13
  %36 = icmp eq i16 %.0.in.fr, 0
  br i1 %36, label %.thread, label %37

.thread:                                          ; preds = %0, %.thread32, %.loopexit
  br label %37

37:                                               ; preds = %.loopexit, %.thread
  %38 = phi i32 [ 3, %.thread ], [ %.0, %.loopexit ]
  ret i32 %38
}